Certificate:
    Data:
        Version: 3 (0x2)
        Serial Number:
            50:c2:5f:c3:76:87:4f:41:fa:b6:c0:7b:cf:40:cb:a3
        Signature Algorithm: ecdsa-with-SHA512
        Issuer: CN=docker-dind
        Validity
            Not Before: May  5 16:53:36 2024 GMT
            Not After : Aug  8 16:53:36 2026 GMT
        Subject: CN=docker-dind
        Subject Public Key Info:
            Public Key Algorithm: id-ecPublicKey
                Public-Key: (384 bit)
                pub:
                    04:30:6e:44:09:8b:0c:5b:67:85:d0:5c:f9:7b:91:
                    b6:cc:d7:75:8f:b2:ef:59:29:9f:1c:30:75:b3:8a:
                    31:d5:2e:27:b0:d7:f6:aa:10:74:5e:3e:01:1e:f9:
                    81:ca:50:db:4d:50:ed:8d:62:0a:55:18:9b:e9:db:
                    e4:ca:a0:bc:d2:9e:30:8d:12:a2:f6:07:c4:cf:b9:
                    c9:de:b9:ce:58:53:ae:51:29:78:e4:d5:88:69:8a:
                    f2:4d:56:ef:4f:eb:bc
                ASN1 OID: secp384r1
                NIST CURVE: P-384
        X509v3 extensions:
            X509v3 Basic Constraints: 
                CA:FALSE
            X509v3 Subject Key Identifier: 
                2C:F2:98:B8:E0:7A:90:24:6C:03:CD:03:36:35:41:7D:52:8C:BB:67
            X509v3 Authority Key Identifier: 
                keyid:C1:66:17:0F:C0:4B:24:63:70:30:9B:8B:88:9A:F1:EB:4C:63:9D:B3
                DirName:/CN=docker-dind
                serial:49:5E:D3:9C:85:28:AE:DA:97:92:8E:8D:F2:62:E8:BC:34:82:2B:4F
            X509v3 Extended Key Usage: 
                TLS Web Server Authentication
            X509v3 Key Usage: 
                Digital Signature, Key Encipherment
            X509v3 Subject Alternative Name: 
                DNS:docker-dind
    Signature Algorithm: ecdsa-with-SHA512
    Signature Value:
        30:65:02:30:17:77:6e:e3:f9:46:58:67:20:f0:96:46:77:62:
        d4:25:f5:55:ca:2e:21:41:af:60:85:2e:04:20:e5:20:b8:60:
        f0:2e:01:c2:ac:b3:26:a1:5d:35:69:ef:6b:1a:6a:aa:02:31:
        00:8a:c4:ee:06:56:eb:4e:0e:d7:90:1c:e3:8e:5f:1f:c7:1f:
        7c:81:d1:b0:53:4c:62:ef:62:0a:7d:c9:47:e1:05:c2:05:22:
        85:5f:91:a5:4e:f5:1b:a9:33:44:22:a0:1c
-----BEGIN CERTIFICATE-----
MIICIjCCAaigAwIBAgIQUMJfw3aHT0H6tsB7z0DLozAKBggqhkjOPQQDBDAWMRQw
EgYDVQQDDAtkb2NrZXItZGluZDAeFw0yNDA1MDUxNjUzMzZaFw0yNjA4MDgxNjUz
MzZaMBYxFDASBgNVBAMMC2RvY2tlci1kaW5kMHYwEAYHKoZIzj0CAQYFK4EEACID
YgAEMG5ECYsMW2eF0Fz5e5G2zNd1j7LvWSmfHDB1s4ox1S4nsNf2qhB0Xj4BHvmB
ylDbTVDtjWIKVRib6dvkyqC80p4wjRKi9gfEz7nJ3rnOWFOuUSl45NWIaYryTVbv
T+u8o4G6MIG3MAkGA1UdEwQCMAAwHQYDVR0OBBYEFCzymLjgepAkbAPNAzY1QX1S
jLtnMFEGA1UdIwRKMEiAFMFmFw/ASyRjcDCbi4ia8etMY52zoRqkGDAWMRQwEgYD
VQQDDAtkb2NrZXItZGluZIIUSV7TnIUortqXko6N8mLovDSCK08wEwYDVR0lBAww
CgYIKwYBBQUHAwEwCwYDVR0PBAQDAgWgMBYGA1UdEQQPMA2CC2RvY2tlci1kaW5k
MAoGCCqGSM49BAMEA2gAMGUCMBd3buP5RlhnIPCWRndi1CX1VcouIUGvYIUuBCDl
ILhg8C4BwqyzJqFdNWnvaxpqqgIxAIrE7gZW604O15Ac445fH8cffIHRsFNMYu9i
Cn3JR+EFwgUihV+RpU71G6kzRCKgHA==
-----END CERTIFICATE-----
