Certificate:
    Data:
        Version: 3 (0x2)
        Serial Number:
            ec:16:06:5d:4a:bc:c7:64:a0:00:00:54:b9:65:26:af
        Signature Algorithm: ecdsa-with-SHA512
        Issuer: CN=docker-dind
        Validity
            Not Before: May  5 16:53:36 2024 GMT
            Not After : Aug  8 16:53:36 2026 GMT
        Subject: CN=cliente-1
        Subject Public Key Info:
            Public Key Algorithm: id-ecPublicKey
                Public-Key: (384 bit)
                pub:
                    04:e6:66:a9:bd:dc:af:e3:2d:bd:82:a8:aa:42:44:
                    d3:76:92:5d:58:7a:74:fb:80:c7:35:6c:e1:12:08:
                    c8:79:ea:5a:1b:c7:7a:10:ac:7e:15:00:83:cf:e4:
                    14:63:86:58:ca:34:01:4f:69:b8:d3:0d:e6:8f:87:
                    91:aa:b9:41:ab:dd:84:60:8b:97:0a:b7:d3:40:2f:
                    93:fd:7d:a9:58:10:a5:8d:66:a1:b0:06:7c:1c:5c:
                    48:1a:1b:f2:21:f5:9b
                ASN1 OID: secp384r1
                NIST CURVE: P-384
        X509v3 extensions:
            X509v3 Basic Constraints: 
                CA:FALSE
            X509v3 Subject Key Identifier: 
                C9:7E:71:8C:00:D2:44:7F:82:B5:E3:23:4D:73:A2:60:C9:B9:59:F6
            X509v3 Authority Key Identifier: 
                keyid:C1:66:17:0F:C0:4B:24:63:70:30:9B:8B:88:9A:F1:EB:4C:63:9D:B3
                DirName:/CN=docker-dind
                serial:49:5E:D3:9C:85:28:AE:DA:97:92:8E:8D:F2:62:E8:BC:34:82:2B:4F
            X509v3 Extended Key Usage: 
                TLS Web Client Authentication
            X509v3 Key Usage: 
                Digital Signature
    Signature Algorithm: ecdsa-with-SHA512
    Signature Value:
        30:64:02:30:30:79:08:e8:c2:fc:e9:0e:26:8e:37:79:c7:55:
        88:f8:ce:08:b8:44:6b:c8:b2:ab:70:d8:b2:d4:d5:ad:c5:2b:
        1e:45:72:f3:d7:0d:a8:f7:e9:66:07:83:e9:d4:5e:fb:02:30:
        52:b8:e0:c8:55:9b:ef:c2:9e:be:61:4c:77:99:f9:42:06:7a:
        bd:29:99:d8:d2:5a:1d:1f:f0:fa:eb:2b:d9:41:e0:8c:4f:c4:
        fa:66:8a:6d:fe:aa:fb:81:97:f5:56:44
-----BEGIN CERTIFICATE-----
MIICCDCCAY+gAwIBAgIRAOwWBl1KvMdkoAAAVLllJq8wCgYIKoZIzj0EAwQwFjEU
MBIGA1UEAwwLZG9ja2VyLWRpbmQwHhcNMjQwNTA1MTY1MzM2WhcNMjYwODA4MTY1
MzM2WjAUMRIwEAYDVQQDDAljbGllbnRlLTEwdjAQBgcqhkjOPQIBBgUrgQQAIgNi
AATmZqm93K/jLb2CqKpCRNN2kl1YenT7gMc1bOESCMh56lobx3oQrH4VAIPP5BRj
hljKNAFPabjTDeaPh5GquUGr3YRgi5cKt9NAL5P9falYEKWNZqGwBnwcXEgaG/Ih
9ZujgaIwgZ8wCQYDVR0TBAIwADAdBgNVHQ4EFgQUyX5xjADSRH+CteMjTXOiYMm5
WfYwUQYDVR0jBEowSIAUwWYXD8BLJGNwMJuLiJrx60xjnbOhGqQYMBYxFDASBgNV
BAMMC2RvY2tlci1kaW5kghRJXtOchSiu2peSjo3yYui8NIIrTzATBgNVHSUEDDAK
BggrBgEFBQcDAjALBgNVHQ8EBAMCB4AwCgYIKoZIzj0EAwQDZwAwZAIwMHkI6ML8
6Q4mjjd5x1WI+M4IuERryLKrcNiy1NWtxSseRXLz1w2o9+lmB4Pp1F77AjBSuODI
VZvvwp6+YUx3mflCBnq9KZnY0lodH/D66yvZQeCMT8T6Zopt/qr7gZf1VkQ=
-----END CERTIFICATE-----
